target datalayout = "e-m:e-p270:32:32-p271:32:32-p272:64:64-i64:64-i128:128-f80:128-n8:16:32:64-S128"
target triple = "x86_64-pc-linux-gnu"

%struct.TclStubs = type { i32, ptr, ptr, ptr, ptr, ptr, ptr, ptr, ptr, ptr, ptr, ptr, ptr, ptr, ptr, ptr, ptr, ptr, ptr, ptr, ptr, ptr, ptr, ptr, ptr, ptr, ptr, ptr, ptr, ptr, ptr, ptr, ptr, ptr, ptr, ptr, ptr, ptr, ptr, ptr, ptr, ptr, ptr, ptr, ptr, ptr, ptr, ptr, ptr, ptr, ptr, ptr, ptr, ptr, ptr, ptr, ptr, ptr, ptr, ptr, ptr, ptr, ptr, ptr, ptr, ptr, ptr, ptr, ptr, ptr, ptr, ptr, ptr, ptr, ptr, ptr, ptr, ptr, ptr, ptr, ptr, ptr, ptr, ptr, ptr, ptr, ptr, ptr, ptr, ptr, ptr, ptr, ptr, ptr, ptr, ptr, ptr, ptr, ptr, ptr, ptr, ptr, ptr, ptr, ptr, ptr, ptr, ptr, ptr, ptr, ptr, ptr, ptr, ptr, ptr, ptr, ptr, ptr, ptr, ptr, ptr, ptr, ptr, ptr, ptr, ptr, ptr, ptr, ptr, ptr, ptr, ptr, ptr, ptr, ptr, ptr, ptr, ptr, ptr, ptr, ptr, ptr, ptr, ptr, ptr, ptr, ptr, ptr, ptr, ptr, ptr, ptr, ptr, ptr, ptr, ptr, ptr, ptr, ptr, ptr, ptr, ptr, ptr, ptr, ptr, ptr, ptr, ptr, ptr, ptr, ptr, ptr, ptr, ptr, ptr, ptr, ptr, ptr, ptr, ptr, ptr, ptr, ptr, ptr, ptr, ptr, ptr, ptr, ptr, ptr, ptr, ptr, ptr, ptr, ptr, ptr, ptr, ptr, ptr, ptr, ptr, ptr, ptr, ptr, ptr, ptr, ptr, ptr, ptr, ptr, ptr, ptr, ptr, ptr, ptr, ptr, ptr, ptr, ptr, ptr, ptr, ptr, ptr, ptr, ptr, ptr, ptr, ptr, ptr, ptr, ptr, ptr, ptr, ptr, ptr, ptr, ptr, ptr, ptr, ptr, ptr, ptr, ptr, ptr, ptr, ptr, ptr, ptr, ptr, ptr, ptr, ptr, ptr, ptr, ptr, ptr, ptr, ptr, ptr, ptr, ptr, ptr, ptr, ptr, ptr, ptr, ptr, ptr, ptr, ptr, ptr, ptr, ptr, ptr, ptr, ptr, ptr, ptr, ptr, ptr, ptr, ptr, ptr, ptr, ptr, ptr, ptr, ptr, ptr, ptr, ptr, ptr, ptr, ptr, ptr, ptr, ptr, ptr, ptr, ptr, ptr, ptr, ptr, ptr, ptr, ptr, ptr, ptr, ptr, ptr, ptr, ptr, ptr, ptr, ptr, ptr, ptr, ptr, ptr, ptr, ptr, ptr, ptr, ptr, ptr, ptr, ptr, ptr, ptr, ptr, ptr, ptr, ptr, ptr, ptr, ptr, ptr, ptr, ptr, ptr, ptr, ptr, ptr, ptr, ptr, ptr, ptr, ptr, ptr, ptr, ptr, ptr, ptr, ptr, ptr, ptr, ptr, ptr, ptr, ptr, ptr, ptr, ptr, ptr, ptr, ptr, ptr, ptr, ptr, ptr, ptr, ptr, ptr, ptr, ptr, ptr, ptr, ptr, ptr, ptr, ptr, ptr, ptr, ptr, ptr, ptr, ptr, ptr, ptr, ptr, ptr, ptr, ptr, ptr, ptr, ptr, ptr, ptr, ptr, ptr, ptr, ptr, ptr, ptr, ptr, ptr, ptr, ptr, ptr, ptr, ptr, ptr, ptr, ptr, ptr, ptr, ptr, ptr, ptr, ptr, ptr, ptr, ptr, ptr, ptr, ptr, ptr, ptr, ptr, ptr, ptr, ptr, ptr, ptr, ptr, ptr, ptr, ptr, ptr, ptr, ptr, ptr, ptr, ptr, ptr, ptr, ptr, ptr, ptr, ptr, ptr, ptr, ptr, ptr, ptr, ptr, ptr, ptr, ptr, ptr, ptr, ptr, ptr, ptr, ptr, ptr, ptr, ptr, ptr, ptr, ptr, ptr, ptr, ptr, ptr, ptr, ptr, ptr, ptr, ptr, ptr, ptr, ptr, ptr, ptr, ptr, ptr, ptr, ptr, ptr, ptr, ptr, ptr, ptr, ptr, ptr, ptr, ptr, ptr, ptr, ptr, ptr, ptr, ptr, ptr, ptr, ptr, ptr, ptr, ptr, ptr, ptr, ptr, ptr, ptr, ptr, ptr, ptr, ptr, ptr, ptr, ptr, ptr, ptr, ptr, ptr, ptr, ptr, ptr, ptr, ptr, ptr, ptr, ptr, ptr, ptr, ptr, ptr, ptr, ptr, ptr, ptr, ptr, ptr, ptr, ptr, ptr, ptr, ptr, ptr, ptr, ptr, ptr, ptr, ptr, ptr, ptr, ptr, ptr, ptr, ptr, ptr, ptr, ptr, ptr, ptr, ptr, ptr, ptr, ptr, ptr, ptr, ptr, ptr, ptr, ptr, ptr, ptr, ptr, ptr, ptr, ptr, ptr, ptr, ptr, ptr, ptr, ptr, ptr, ptr, ptr, ptr, ptr, ptr, ptr, ptr, ptr, ptr, ptr, ptr, ptr, ptr, ptr, ptr, ptr, ptr, ptr, ptr, ptr, ptr, ptr, ptr, ptr, ptr, ptr, ptr, ptr, ptr, ptr, ptr, ptr, ptr, ptr, ptr, ptr, ptr, ptr, ptr, ptr, ptr, ptr, ptr, ptr, ptr, ptr, ptr, ptr, ptr, ptr, ptr, ptr, ptr, ptr, ptr, ptr, ptr, ptr, ptr, ptr, ptr, ptr, ptr, ptr, ptr, ptr, ptr, ptr, ptr, ptr, ptr, ptr, ptr, ptr }
%struct.SqliteDb = type { ptr, ptr, ptr, ptr, ptr, ptr, ptr, ptr, ptr, ptr, i32, ptr, ptr, ptr, ptr, ptr, ptr, ptr, ptr, i32, ptr, ptr, ptr, i32, i32, ptr, i32, i32, i32, i32, i32, i32, i32 }
%struct.Tcl_Obj = type { i32, ptr, i32, ptr, %union.anon }
%union.anon = type { %struct.anon }
%struct.anon = type { ptr, ptr }

@tclStubsPtr = external global ptr, align 8

; Function Attrs: nounwind uwtable
define internal i32 @DbWalHandler(ptr noundef %0, ptr noundef %1, ptr noundef %2, i32 noundef %3) #0 {
  %5 = alloca ptr, align 8
  %6 = alloca ptr, align 8
  %7 = alloca ptr, align 8
  %8 = alloca i32, align 4
  %9 = alloca i32, align 4
  %10 = alloca ptr, align 8
  %11 = alloca ptr, align 8
  %12 = alloca ptr, align 8
  %13 = alloca ptr, align 8
  store ptr %0, ptr %5, align 8, !tbaa !15
  store ptr %1, ptr %6, align 8, !tbaa !53
  store ptr %2, ptr %7, align 8, !tbaa !18
  store i32 %3, ptr %8, align 4, !tbaa !8
  call void @llvm.lifetime.start.p0(i64 4, ptr %9) #10
  store i32 0, ptr %9, align 4, !tbaa !8
  call void @llvm.lifetime.start.p0(i64 8, ptr %10) #10
  call void @llvm.lifetime.start.p0(i64 8, ptr %11) #10
  %14 = load ptr, ptr %5, align 8, !tbaa !15
  store ptr %14, ptr %11, align 8, !tbaa !30
  call void @llvm.lifetime.start.p0(i64 8, ptr %12) #10
  %15 = load ptr, ptr %11, align 8, !tbaa !30
  %16 = getelementptr inbounds nuw %struct.SqliteDb, ptr %15, i32 0, i32 1
  %17 = load ptr, ptr %16, align 8, !tbaa !45
  store ptr %17, ptr %12, align 8, !tbaa !3
  %18 = load ptr, ptr @tclStubsPtr, align 8, !tbaa !10
  %19 = getelementptr inbounds nuw %struct.TclStubs, ptr %18, i32 0, i32 31
  %20 = load ptr, ptr %19, align 8, !tbaa !74
  %21 = load ptr, ptr %11, align 8, !tbaa !30
  %22 = getelementptr inbounds nuw %struct.SqliteDb, ptr %21, i32 0, i32 16
  %23 = load ptr, ptr %22, align 8, !tbaa !215
  %24 = call ptr %20(ptr noundef %23)
  store ptr %24, ptr %10, align 8, !tbaa !21
  %25 = load ptr, ptr %10, align 8, !tbaa !21
  %26 = getelementptr inbounds nuw %struct.Tcl_Obj, ptr %25, i32 0, i32 0
  %27 = load i32, ptr %26, align 8, !tbaa !70
  %28 = add nsw i32 %27, 1
  store i32 %28, ptr %26, align 8, !tbaa !70
  %29 = load ptr, ptr @tclStubsPtr, align 8, !tbaa !10
  %30 = getelementptr inbounds nuw %struct.TclStubs, ptr %29, i32 0, i32 46
  %31 = load ptr, ptr %30, align 8, !tbaa !80
  %32 = load ptr, ptr %12, align 8, !tbaa !3
  %33 = load ptr, ptr %10, align 8, !tbaa !21
  %34 = load ptr, ptr @tclStubsPtr, align 8, !tbaa !10
  %35 = getelementptr inbounds nuw %struct.TclStubs, ptr %34, i32 0, i32 58
  %36 = load ptr, ptr %35, align 8, !tbaa !81
  %37 = load ptr, ptr %7, align 8, !tbaa !18
  %38 = call ptr %36(ptr noundef %37, i32 noundef -1)
  %39 = call i32 %31(ptr noundef %32, ptr noundef %33, ptr noundef %38)
  %40 = load ptr, ptr @tclStubsPtr, align 8, !tbaa !10
  %41 = getelementptr inbounds nuw %struct.TclStubs, ptr %40, i32 0, i32 46
  %42 = load ptr, ptr %41, align 8, !tbaa !80
  %43 = load ptr, ptr %12, align 8, !tbaa !3
  %44 = load ptr, ptr %10, align 8, !tbaa !21
  %45 = load ptr, ptr @tclStubsPtr, align 8, !tbaa !10
  %46 = getelementptr inbounds nuw %struct.TclStubs, ptr %45, i32 0, i32 54
  %47 = load ptr, ptr %46, align 8, !tbaa !83
  %48 = load i32, ptr %8, align 4, !tbaa !8
  %49 = call ptr %47(i32 noundef %48)
  %50 = call i32 %42(ptr noundef %43, ptr noundef %44, ptr noundef %49)
  %51 = load ptr, ptr @tclStubsPtr, align 8, !tbaa !10
  %52 = getelementptr inbounds nuw %struct.TclStubs, ptr %51, i32 0, i32 295
  %53 = load ptr, ptr %52, align 8, !tbaa !133
  %54 = load ptr, ptr %12, align 8, !tbaa !3
  %55 = load ptr, ptr %10, align 8, !tbaa !21
  %56 = call i32 %53(ptr noundef %54, ptr noundef %55, i32 noundef 0)
  %57 = icmp ne i32 0, %56
  br i1 %57, label %70, label %58

58:                                               ; preds = %4
  %59 = load ptr, ptr @tclStubsPtr, align 8, !tbaa !10
  %60 = getelementptr inbounds nuw %struct.TclStubs, ptr %59, i32 0, i32 40
  %61 = load ptr, ptr %60, align 8, !tbaa !59
  %62 = load ptr, ptr %12, align 8, !tbaa !3
  %63 = load ptr, ptr @tclStubsPtr, align 8, !tbaa !10
  %64 = getelementptr inbounds nuw %struct.TclStubs, ptr %63, i32 0, i32 168
  %65 = load ptr, ptr %64, align 8, !tbaa !60
  %66 = load ptr, ptr %12, align 8, !tbaa !3
  %67 = call ptr %65(ptr noundef %66)
  %68 = call i32 %61(ptr noundef %62, ptr noundef %67, ptr noundef %9)
  %69 = icmp ne i32 0, %68
  br i1 %69, label %70, label %75

70:                                               ; preds = %58, %4
  %71 = load ptr, ptr @tclStubsPtr, align 8, !tbaa !10
  %72 = getelementptr inbounds nuw %struct.TclStubs, ptr %71, i32 0, i32 78
  %73 = load ptr, ptr %72, align 8, !tbaa !240
  %74 = load ptr, ptr %12, align 8, !tbaa !3
  call void %73(ptr noundef %74)
  br label %75

75:                                               ; preds = %70, %58
  br label %76

76:                                               ; preds = %75
  call void @llvm.lifetime.start.p0(i64 8, ptr %13) #10
  %77 = load ptr, ptr %10, align 8, !tbaa !21
  store ptr %77, ptr %13, align 8, !tbaa !21
  %78 = load ptr, ptr %13, align 8, !tbaa !21
  %79 = getelementptr inbounds nuw %struct.Tcl_Obj, ptr %78, i32 0, i32 0
  %80 = load i32, ptr %79, align 8, !tbaa !70
  %81 = add nsw i32 %80, -1
  store i32 %81, ptr %79, align 8, !tbaa !70
  %82 = icmp sle i32 %80, 1
  br i1 %82, label %83, label %88

83:                                               ; preds = %76
  %84 = load ptr, ptr @tclStubsPtr, align 8, !tbaa !10
  %85 = getelementptr inbounds nuw %struct.TclStubs, ptr %84, i32 0, i32 32
  %86 = load ptr, ptr %85, align 8, !tbaa !73
  %87 = load ptr, ptr %13, align 8, !tbaa !21
  call void %86(ptr noundef %87)
  br label %88

88:                                               ; preds = %83, %76
  call void @llvm.lifetime.end.p0(i64 8, ptr %13) #10
  br label %89

89:                                               ; preds = %88
  br label %90

90:                                               ; preds = %89
  %91 = load i32, ptr %9, align 4, !tbaa !8
  call void @llvm.lifetime.end.p0(i64 8, ptr %12) #10
  call void @llvm.lifetime.end.p0(i64 8, ptr %11) #10
  call void @llvm.lifetime.end.p0(i64 8, ptr %10) #10
  call void @llvm.lifetime.end.p0(i64 4, ptr %9) #10
  ret i32 %91
}