; Function Attrs: nounwind uwtable
define internal i32 @DbWalHandler(ptr noundef readonly captures(none) %0, ptr readnone captures(none) %1, ptr noundef %2, i32 noundef %3) #0 {
  %5 = alloca i32, align 4
  call void @llvm.lifetime.start.p0(i64 4, ptr nonnull %5) #14
  store i32 0, ptr %5, align 4, !tbaa !12
  %6 = getelementptr inbounds nuw i8, ptr %0, i64 8
  %7 = load ptr, ptr %6, align 8, !tbaa !39
  %8 = load ptr, ptr @tclStubsPtr, align 8, !tbaa !3
  %9 = getelementptr inbounds nuw i8, ptr %8, i64 248
  %10 = load ptr, ptr %9, align 8, !tbaa !65
  %11 = getelementptr inbounds nuw i8, ptr %0, i64 128
  %12 = load ptr, ptr %11, align 8, !tbaa !203
  %13 = tail call ptr %10(ptr noundef %12) #14
  %14 = load i32, ptr %13, align 8, !tbaa !61
  %15 = add nsw i32 %14, 1
  store i32 %15, ptr %13, align 8, !tbaa !61
  %16 = load ptr, ptr @tclStubsPtr, align 8, !tbaa !3
  %17 = getelementptr inbounds nuw i8, ptr %16, i64 368
  %18 = load ptr, ptr %17, align 8, !tbaa !71
  %19 = getelementptr inbounds nuw i8, ptr %16, i64 464
  %20 = load ptr, ptr %19, align 8, !tbaa !72
  %21 = tail call ptr %20(ptr noundef %2, i32 noundef -1) #14
  %22 = tail call i32 %18(ptr noundef %7, ptr noundef nonnull %13, ptr noundef %21) #14
  %23 = load ptr, ptr @tclStubsPtr, align 8, !tbaa !3
  %24 = getelementptr inbounds nuw i8, ptr %23, i64 368
  %25 = load ptr, ptr %24, align 8, !tbaa !71
  %26 = getelementptr inbounds nuw i8, ptr %23, i64 432
  %27 = load ptr, ptr %26, align 8, !tbaa !74
  %28 = tail call ptr %27(i32 noundef %3) #14
  %29 = tail call i32 %25(ptr noundef %7, ptr noundef nonnull %13, ptr noundef %28) #14
  %30 = load ptr, ptr @tclStubsPtr, align 8, !tbaa !3
  %31 = getelementptr inbounds nuw i8, ptr %30, i64 2360
  %32 = load ptr, ptr %31, align 8, !tbaa !121
  %33 = tail call i32 %32(ptr noundef %7, ptr noundef nonnull %13, i32 noundef 0) #14
  %.not = icmp eq i32 %33, 0
  br i1 %.not, label %34, label %42

34:                                               ; preds = %4
  %35 = load ptr, ptr @tclStubsPtr, align 8, !tbaa !3
  %36 = getelementptr inbounds nuw i8, ptr %35, i64 320
  %37 = load ptr, ptr %36, align 8, !tbaa !51
  %38 = getelementptr inbounds nuw i8, ptr %35, i64 1344
  %39 = load ptr, ptr %38, align 8, !tbaa !52
  %40 = tail call ptr %39(ptr noundef %7) #14
  %41 = call i32 %37(ptr noundef %7, ptr noundef %40, ptr noundef nonnull %5) #14
  %.not17 = icmp eq i32 %41, 0
  br i1 %.not17, label %46, label %42

42:                                               ; preds = %34, %4
  %43 = load ptr, ptr @tclStubsPtr, align 8, !tbaa !3
  %44 = getelementptr inbounds nuw i8, ptr %43, i64 624
  %45 = load ptr, ptr %44, align 8, !tbaa !211
  call void %45(ptr noundef %7) #14
  br label %46

46:                                               ; preds = %34, %42
  %47 = load i32, ptr %13, align 8, !tbaa !61
  %48 = add nsw i32 %47, -1
  store i32 %48, ptr %13, align 8, !tbaa !61
  %49 = icmp slt i32 %47, 2
  br i1 %49, label %50, label %54

50:                                               ; preds = %46
  %51 = load ptr, ptr @tclStubsPtr, align 8, !tbaa !3
  %52 = getelementptr inbounds nuw i8, ptr %51, i64 256
  %53 = load ptr, ptr %52, align 8, !tbaa !64
  call void %53(ptr noundef nonnull %13) #14
  br label %54

54:                                               ; preds = %50, %46
  %55 = load i32, ptr %5, align 4, !tbaa !12
  call void @llvm.lifetime.end.p0(i64 4, ptr nonnull %5) #14
  ret i32 %55
}